(dp1
S'files'
p2
(dp3
S'_usr_local_lib_python2_7_dist-packages_django_utils_http'
p4
(dp5
S'index'
p6
(dp7
S'html_filename'
p8
S'_usr_local_lib_python2_7_dist-packages_django_utils_http.html'
p9
sS'name'
p10
S'/usr/local/lib/python2.7/dist-packages/django/utils/http'
p11
sS'nums'
p12
ccopy_reg
_reconstructor
p13
(ccoverage.results
Numbers
p14
c__builtin__
object
p15
NtRp16
(dp17
S'n_files'
p18
I1
sS'n_branches'
p19
I0
sS'n_statements'
p20
I138
sS'n_excluded'
p21
I0
sS'n_partial_branches'
p22
I0
sS'n_missing'
p23
I89
sS'n_missing_branches'
p24
I0
sbssS'hash'
p25
S"(\x96\xb2\xe9\x83'\xdf\x02d\xb4\x11)\x8d\xc9g\xab"
p26
ssS'_usr_local_lib_python2_7_dist-packages_django_core_serializers_json'
p27
(dp28
g6
(dp29
g8
S'_usr_local_lib_python2_7_dist-packages_django_core_serializers_json.html'
p30
sg10
S'/usr/local/lib/python2.7/dist-packages/django/core/serializers/json'
p31
sg12
g13
(g14
g15
NtRp32
(dp33
g18
I1
sg19
I0
sg20
I76
sg21
I0
sg22
I0
sg23
I56
sg24
I0
sbssg25
S'\x80\x88\x9b\xf5\xbd\x83\x95\xa5\xc3\x0b\xd7\x82r\x7f\x12\xa7'
p34
ssS'_usr_local_lib_python2_7_dist-packages_django_core_files_temp'
p35
(dp36
g6
(dp37
g8
S'_usr_local_lib_python2_7_dist-packages_django_core_files_temp.html'
p38
sg10
S'/usr/local/lib/python2.7/dist-packages/django/core/files/temp'
p39
sg12
g13
(g14
g15
NtRp40
(dp41
g18
I1
sg19
I0
sg20
I35
sg21
I0
sg22
I0
sg23
I28
sg24
I0
sbssg25
S'\x93QD\xb7v\xcb\xde\x04&\x13"\xe2\x0b\x7f\xa9\x9a'
p42
ssS'_usr_local_lib_python2_7_dist-packages_django_utils_lorem_ipsum'
p43
(dp44
g6
(dp45
g8
S'_usr_local_lib_python2_7_dist-packages_django_utils_lorem_ipsum.html'
p46
sg10
S'/usr/local/lib/python2.7/dist-packages/django/utils/lorem_ipsum'
p47
sg12
g13
(g14
g15
NtRp48
(dp49
g18
I1
sg19
I0
sg20
I31
sg21
I0
sg22
I0
sg23
I22
sg24
I0
sbssg25
S'\xc7\xce\xae\xfe\x17\xebzN\x81\xd8\x92\x10\xba\xf0z3'
p50
ssS'_usr_local_lib_python2_7_dist-packages_django_core_files_utils'
p51
(dp52
g6
(dp53
g8
S'_usr_local_lib_python2_7_dist-packages_django_core_files_utils.html'
p54
sg10
S'/usr/local/lib/python2.7/dist-packages/django/core/files/utils'
p55
sg12
g13
(g14
g15
NtRp56
(dp57
g18
I1
sg19
I0
sg20
I19
sg21
I0
sg22
I0
sg23
I1
sg24
I0
sbssg25
S'\xf9\x11l\xd6u\x8d\xd2\xe3g\x05F\xd6{F\x15\xdc'
p58
ssS'_usr_local_lib_python2_7_dist-packages_django_core_files_storage'
p59
(dp60
g6
(dp61
g8
S'_usr_local_lib_python2_7_dist-packages_django_core_files_storage.html'
p62
sg10
S'/usr/local/lib/python2.7/dist-packages/django/core/files/storage'
p63
sg12
g13
(g14
g15
NtRp64
(dp65
g18
I1
sg19
I0
sg20
I166
sg21
I0
sg22
I0
sg23
I115
sg24
I0
sbssg25
S'\xcc\xeavY\xe2r4\x05\x82YT\x8f\xf3_\xeev'
p66
ssS'_usr_local_lib_python2_7_dist-packages_django_http___init__'
p67
(dp68
g6
(dp69
g8
S'_usr_local_lib_python2_7_dist-packages_django_http___init__.html'
p70
sg10
S'/usr/local/lib/python2.7/dist-packages/django/http/__init__'
p71
sg12
g13
(g14
g15
NtRp72
(dp73
g18
I1
sg19
I0
sg20
I5
sg21
I0
sg22
I0
sg23
I0
sg24
I0
sbssg25
S'2\x02\x8b\xb3+\x83E\x1e\xa9$y+.\\\xd8\xed'
p74
ssS'_usr_local_lib_python2_7_dist-packages_django_core_handlers___init__'
p75
(dp76
g6
(dp77
g8
S'_usr_local_lib_python2_7_dist-packages_django_core_handlers___init__.html'
p78
sg10
S'/usr/local/lib/python2.7/dist-packages/django/core/handlers/__init__'
p79
sg12
g13
(g14
g15
NtRp80
(dp81
g18
I1
sg19
I0
sg20
I0
sg21
I0
sg22
I0
sg23
I0
sg24
I0
sbssg25
S'\xca\xf5\x9f\x7f\x88\xdfa\x831|T\x1d\xbc}\xa5v'
p82
ssS'_usr_local_lib_python2_7_dist-packages_django_utils_ipv6'
p83
(dp84
g6
(dp85
g8
S'_usr_local_lib_python2_7_dist-packages_django_utils_ipv6.html'
p86
sg10
S'/usr/local/lib/python2.7/dist-packages/django/utils/ipv6'
p87
sg12
g13
(g14
g15
NtRp88
(dp89
g18
I1
sg19
I0
sg20
I108
sg21
I0
sg22
I0
sg23
I99
sg24
I0
sbssg25
S'Y\xbf\x99\x93[\xf7{\x03\xde\x87\xef|X\x11sG'
p90
ssS'_usr_local_lib_python2_7_dist-packages_django_template_loaders_base'
p91
(dp92
g6
(dp93
g8
S'_usr_local_lib_python2_7_dist-packages_django_template_loaders_base.html'
p94
sg10
S'/usr/local/lib/python2.7/dist-packages/django/template/loaders/base'
p95
sg12
g13
(g14
g15
NtRp96
(dp97
g18
I1
sg19
I0
sg20
I20
sg21
I0
sg22
I0
sg23
I11
sg24
I0
sbssg25
S'\xc7k\xc5E\xf7pb\xbb\x7f\xaa\xa0\xbd\x0b6\x91`'
p98
ssS'_usr_local_lib_python2_7_dist-packages_django_utils_html'
p99
(dp100
g6
(dp101
g8
S'_usr_local_lib_python2_7_dist-packages_django_utils_html.html'
p102
sg10
S'/usr/local/lib/python2.7/dist-packages/django/utils/html'
p103
sg12
g13
(g14
g15
NtRp104
(dp105
g18
I1
sg19
I0
sg20
I200
sg21
I0
sg22
I0
sg23
I137
sg24
I0
sbssg25
S'\xc8J\xb4]\xa7\xa5\xe1jR.\x81\xba\x04d\xa5X'
p106
ssS'_usr_local_lib_python2_7_dist-packages_django_utils_baseconv'
p107
(dp108
g6
(dp109
g8
S'_usr_local_lib_python2_7_dist-packages_django_utils_baseconv.html'
p110
sg10
S'/usr/local/lib/python2.7/dist-packages/django/utils/baseconv'
p111
sg12
g13
(g14
g15
NtRp112
(dp113
g18
I1
sg19
I0
sg20
I48
sg21
I0
sg22
I0
sg23
I25
sg24
I0
sbssg25
S'\xd5\xdfo\x02\x03\xa3\x0eD\xac^h\x99\x8e,E{'
p114
ssS'_usr_local_lib_python2_7_dist-packages_django_template_backends_base'
p115
(dp116
g6
(dp117
g8
S'_usr_local_lib_python2_7_dist-packages_django_template_backends_base.html'
p118
sg10
S'/usr/local/lib/python2.7/dist-packages/django/template/backends/base'
p119
sg12
g13
(g14
g15
NtRp120
(dp121
g18
I1
sg19
I0
sg20
I30
sg21
I0
sg22
I0
sg23
I18
sg24
I0
sbssg25
S'-\r\x18\xf2\xd8\xeaC\xc0f\x9dpR\x9d\xe3\x00\x87'
p122
ssS'_usr_local_lib_python2_7_dist-packages_django_template_engine'
p123
(dp124
g6
(dp125
g8
S'_usr_local_lib_python2_7_dist-packages_django_template_engine.html'
p126
sg10
S'/usr/local/lib/python2.7/dist-packages/django/template/engine'
p127
sg12
g13
(g14
g15
NtRp128
(dp129
g18
I1
sg19
I0
sg20
I144
sg21
I0
sg22
I0
sg23
I100
sg24
I0
sbssg25
S'\x18M\x01sU\xb0\xa7\x06\xbc\xd8a@%\x8bG\xeb'
p130
ssS'_usr_local_lib_python2_7_dist-packages_django_db_models_sql_subqueries'
p131
(dp132
g6
(dp133
g8
S'_usr_local_lib_python2_7_dist-packages_django_db_models_sql_subqueries.html'
p134
sg10
S'/usr/local/lib/python2.7/dist-packages/django/db/models/sql/subqueries'
p135
sg12
g13
(g14
g15
NtRp136
(dp137
g18
I1
sg19
I0
sg20
I104
sg21
I0
sg22
I0
sg23
I74
sg24
I0
sbssg25
S'n\x0b\xf6\xc8K\x9f\xab\\)*5\xe5*\x86\x97\xa9'
p138
ssS'_usr_local_lib_python2_7_dist-packages_django_test_client'
p139
(dp140
g6
(dp141
g8
S'_usr_local_lib_python2_7_dist-packages_django_test_client.html'
p142
sg10
S'/usr/local/lib/python2.7/dist-packages/django/test/client'
p143
sg12
g13
(g14
g15
NtRp144
(dp145
g18
I1
sg19
I0
sg20
I315
sg21
I0
sg22
I0
sg23
I240
sg24
I0
sbssg25
S'M\x95>\xc2&\xa5Aa2\x91v\xaf\xb5\x8c"\x90'
p146
ssS'_usr_local_lib_python2_7_dist-packages_django_core_management_base'
p147
(dp148
g6
(dp149
g8
S'_usr_local_lib_python2_7_dist-packages_django_core_management_base.html'
p150
sg10
S'/usr/local/lib/python2.7/dist-packages/django/core/management/base'
p151
sg12
g13
(g14
g15
NtRp152
(dp153
g18
I1
sg19
I0
sg20
I250
sg21
I0
sg22
I0
sg23
I185
sg24
I0
sbssg25
S'l\xaa\xf0\xfa\x15J\x8bvI\x8c~\xdc\x92\xc9\xff\x9a'
p154
ssS'_usr_local_lib_python2_7_dist-packages_django_utils_deprecation'
p155
(dp156
g6
(dp157
g8
S'_usr_local_lib_python2_7_dist-packages_django_utils_deprecation.html'
p158
sg10
S'/usr/local/lib/python2.7/dist-packages/django/utils/deprecation'
p159
sg12
g13
(g14
g15
NtRp160
(dp161
g18
I1
sg19
I0
sg20
I38
sg21
I0
sg22
I0
sg23
I5
sg24
I0
sbssg25
S'\xd8&+\x0f\xb7Uk.\x8e\x93\x1b\x8fc\xfb\xd2q'
p162
ssS'_usr_local_lib_python2_7_dist-packages_django_db_utils'
p163
(dp164
g6
(dp165
g8
S'_usr_local_lib_python2_7_dist-packages_django_db_utils.html'
p166
sg10
S'/usr/local/lib/python2.7/dist-packages/django/db/utils'
p167
sg12
g13
(g14
g15
NtRp168
(dp169
g18
I1
sg19
I0
sg20
I217
sg21
I0
sg22
I0
sg23
I148
sg24
I0
sbssg25
S'\xa8\xf0\xecX\x90Is*}N\xb8V`3\xb1\xf1'
p170
ssS'_usr_local_lib_python2_7_dist-packages_django_utils_module_loading'
p171
(dp172
g6
(dp173
g8
S'_usr_local_lib_python2_7_dist-packages_django_utils_module_loading.html'
p174
sg10
S'/usr/local/lib/python2.7/dist-packages/django/utils/module_loading'
p175
sg12
g13
(g14
g15
NtRp176
(dp177
g18
I1
sg19
I0
sg20
I101
sg21
I0
sg22
I0
sg23
I86
sg24
I0
sbssg25
S'\x19f\xba\xcf\x9cM\x9d\x8a\xa0|\x0f\xc9\xa9>;\x9b'
p178
ssS'_usr_local_lib_python2_7_dist-packages_django_forms_models'
p179
(dp180
g6
(dp181
g8
S'_usr_local_lib_python2_7_dist-packages_django_forms_models.html'
p182
sg10
S'/usr/local/lib/python2.7/dist-packages/django/forms/models'
p183
sg12
g13
(g14
g15
NtRp184
(dp185
g18
I1
sg19
I0
sg20
I672
sg21
I0
sg22
I0
sg23
I563
sg24
I0
sbssg25
S'\x92C\xd4%H\x16W6\xb55\xe9\xa7q\xf1)\xd7'
p186
ssS'_usr_local_lib_python2_7_dist-packages_django_template_smartif'
p187
(dp188
g6
(dp189
g8
S'_usr_local_lib_python2_7_dist-packages_django_template_smartif.html'
p190
sg10
S'/usr/local/lib/python2.7/dist-packages/django/template/smartif'
p191
sg12
g13
(g14
g15
NtRp192
(dp193
g18
I1
sg19
I0
sg20
I108
sg21
I0
sg22
I0
sg23
I63
sg24
I0
sbssg25
S'|M"\xfa\xf4\x02\x1b\xd5_ne\'i\xc9Sv'
p194
ssS'_usr_local_lib_python2_7_dist-packages_django_core_files___init__'
p195
(dp196
g6
(dp197
g8
S'_usr_local_lib_python2_7_dist-packages_django_core_files___init__.html'
p198
sg10
S'/usr/local/lib/python2.7/dist-packages/django/core/files/__init__'
p199
sg12
g13
(g14
g15
NtRp200
(dp201
g18
I1
sg19
I0
sg20
I2
sg21
I0
sg22
I0
sg23
I0
sg24
I0
sbssg25
S'G\xfbz6gu\xc3\x13E\x9f3\xbb\xe0d\xe3`'
p202
ssS'tests'
p203
(dp204
g6
(dp205
g8
S'tests.html'
p206
sg10
g203
sg12
g13
(g14
g15
NtRp207
(dp208
g18
I1
sg19
I0
sg20
I55
sg21
I0
sg22
I0
sg23
I50
sg24
I0
sbssg25
S'\x1do\xe8L\xc5\xa8\xb3\x04"7\xa0\\\xa5\xbd\xb4\xf2'
p209
ssS'_usr_local_lib_python2_7_dist-packages_django_core_mail_utils'
p210
(dp211
g6
(dp212
g8
S'_usr_local_lib_python2_7_dist-packages_django_core_mail_utils.html'
p213
sg10
S'/usr/local/lib/python2.7/dist-packages/django/core/mail/utils'
p214
sg12
g13
(g14
g15
NtRp215
(dp216
g18
I1
sg19
I0
sg20
I9
sg21
I0
sg22
I0
sg23
I4
sg24
I0
sbssg25
S'1;F\xfb\xb1\rUh=1\x8b}\x9c3\xc3\xbf'
p217
ssS'_usr_local_lib_python2_7_dist-packages_django_db_models_aggregates'
p218
(dp219
g6
(dp220
g8
S'_usr_local_lib_python2_7_dist-packages_django_db_models_aggregates.html'
p221
sg10
S'/usr/local/lib/python2.7/dist-packages/django/db/models/aggregates'
p222
sg12
g13
(g14
g15
NtRp223
(dp224
g18
I1
sg19
I0
sg20
I87
sg21
I0
sg22
I0
sg23
I44
sg24
I0
sbssg25
S'\x8d\xbc\x8d\xc4\xc1\x1d\x89\x04\x92\x8a\xfaEC%\xa53'
p225
ssS'_usr_local_lib_python2_7_dist-packages_django_utils_lru_cache'
p226
(dp227
g6
(dp228
g8
S'_usr_local_lib_python2_7_dist-packages_django_utils_lru_cache.html'
p229
sg10
S'/usr/local/lib/python2.7/dist-packages/django/utils/lru_cache'
p230
sg12
g13
(g14
g15
NtRp231
(dp232
g18
I1
sg19
I0
sg20
I106
sg21
I0
sg22
I0
sg23
I70
sg24
I0
sbssg25
S's\x90\xd0o\x1e\xd8\x11\xda_\xfa\x0fF\xea\xafj\xd2'
p233
ssS'_usr_local_lib_python2_7_dist-packages_django_core_files_move'
p234
(dp235
g6
(dp236
g8
S'_usr_local_lib_python2_7_dist-packages_django_core_files_move.html'
p237
sg10
S'/usr/local/lib/python2.7/dist-packages/django/core/files/move'
p238
sg12
g13
(g14
g15
NtRp239
(dp240
g18
I1
sg19
I0
sg20
I37
sg21
I0
sg22
I0
sg23
I31
sg24
I0
sbssg25
S'_e\xeb\x91\xcb\x93Z\x97px\x9a\x1a\x1f\xab\x1a\x06'
p241
ssS'_usr_local_lib_python2_7_dist-packages_django_utils_formats'
p242
(dp243
g6
(dp244
g8
S'_usr_local_lib_python2_7_dist-packages_django_utils_formats.html'
p245
sg10
S'/usr/local/lib/python2.7/dist-packages/django/utils/formats'
p246
sg12
g13
(g14
g15
NtRp247
(dp248
g18
I1
sg19
I0
sg20
I125
sg21
I0
sg22
I0
sg23
I100
sg24
I0
sbssg25
S'\x04X\xde\xce\x8e\xa3#b[/o\xd3\xde\x88\xf6\xb8'
p249
ssS'_usr_local_lib_python2_7_dist-packages_django_apps_registry'
p250
(dp251
g6
(dp252
g8
S'_usr_local_lib_python2_7_dist-packages_django_apps_registry.html'
p253
sg10
S'/usr/local/lib/python2.7/dist-packages/django/apps/registry'
p254
sg12
g13
(g14
g15
NtRp255
(dp256
g18
I1
sg19
I0
sg20
I186
sg21
I0
sg22
I0
sg23
I138
sg24
I0
sbssg25
S'H\x00\xeeJe^\t\xf8\xf6ju\x8fb\x00\xd3\xaf'
p257
ssS'_usr_local_lib_python2_7_dist-packages_django_core_serializers_base'
p258
(dp259
g6
(dp260
g8
S'_usr_local_lib_python2_7_dist-packages_django_core_serializers_base.html'
p261
sg10
S'/usr/local/lib/python2.7/dist-packages/django/core/serializers/base'
p262
sg12
g13
(g14
g15
NtRp263
(dp264
g18
I1
sg19
I0
sg20
I90
sg21
I0
sg22
I0
sg23
I60
sg24
I0
sbssg25
S'\xb1vN)\xab\x99\x94T\xbe\xfc\x199Y^rO'
p265
ssS'_usr_local_lib_python2_7_dist-packages_django_core_signing'
p266
(dp267
g6
(dp268
g8
S'_usr_local_lib_python2_7_dist-packages_django_core_signing.html'
p269
sg10
S'/usr/local/lib/python2.7/dist-packages/django/core/signing'
p270
sg12
g13
(g14
g15
NtRp271
(dp272
g18
I1
sg19
I0
sg20
I90
sg21
I0
sg22
I0
sg23
I57
sg24
I0
sbssg25
S"\\\x1e\x11\xeeK\xc0}\xd5qj\x99\xc2%\x98',"
p273
ssS'_usr_local_lib_python2_7_dist-packages_django_core_management_color'
p274
(dp275
g6
(dp276
g8
S'_usr_local_lib_python2_7_dist-packages_django_core_management_color.html'
p277
sg10
S'/usr/local/lib/python2.7/dist-packages/django/core/management/color'
p278
sg12
g13
(g14
g15
NtRp279
(dp280
g18
I1
sg19
I0
sg20
I29
sg21
I0
sg22
I0
sg23
I22
sg24
I0
sbssg25
S"f'8H\x19Z\x01\x81\xa7z\xa7V\xe1\xb6\xadD"
p281
ssS'_usr_local_lib_python2_7_dist-packages_django_core_exceptions'
p282
(dp283
g6
(dp284
g8
S'_usr_local_lib_python2_7_dist-packages_django_core_exceptions.html'
p285
sg10
S'/usr/local/lib/python2.7/dist-packages/django/core/exceptions'
p286
sg12
g13
(g14
g15
NtRp287
(dp288
g18
I1
sg19
I0
sg20
I87
sg21
I0
sg22
I0
sg23
I47
sg24
I0
sbssg25
S'\xa7\xd0\xe8f,\xe2\x13P\x1b\xcc\xcb\x91]\x7f>\\'
p289
ssS'_usr_local_lib_python2_7_dist-packages_django_utils_version'
p290
(dp291
g6
(dp292
g8
S'_usr_local_lib_python2_7_dist-packages_django_utils_version.html'
p293
sg10
S'/usr/local/lib/python2.7/dist-packages/django/utils/version'
p294
sg12
g13
(g14
g15
NtRp295
(dp296
g18
I1
sg19
I0
sg20
I42
sg21
I0
sg22
I0
sg23
I18
sg24
I0
sbssg25
S'\xb3\xe3\xc2\xaa\xe7\x8c+\xfe\x85\xfe\x94-\xa5ZJ\xb2'
p297
ssS'_usr_local_lib_python2_7_dist-packages_django_http_cookie'
p298
(dp299
g6
(dp300
g8
S'_usr_local_lib_python2_7_dist-packages_django_http_cookie.html'
p301
sg10
S'/usr/local/lib/python2.7/dist-packages/django/http/cookie'
p302
sg12
g13
(g14
g15
NtRp303
(dp304
g18
I1
sg19
I0
sg20
I62
sg21
I0
sg22
I0
sg23
I40
sg24
I0
sbssg25
S'i\x1cnROPFY\xdb\xc3\xa0\xfc\xa4\xa2\x96\x8a'
p305
ssS'_usr_local_lib_python2_7_dist-packages_django_template_defaultfilters'
p306
(dp307
g6
(dp308
g8
S'_usr_local_lib_python2_7_dist-packages_django_template_defaultfilters.html'
p309
sg10
S'/usr/local/lib/python2.7/dist-packages/django/template/defaultfilters'
p310
sg12
g13
(g14
g15
NtRp311
(dp312
g18
I1
sg19
I0
sg20
I461
sg21
I0
sg22
I0
sg23
I331
sg24
I0
sbssg25
S'\x89%a\xd4\xe0\xd5=\x0c\xd0\xa7\x9b\xc8[\x11\xfc\xa5'
p313
ssS'_usr_local_lib_python2_7_dist-packages_django_utils___init__'
p314
(dp315
g6
(dp316
g8
S'_usr_local_lib_python2_7_dist-packages_django_utils___init__.html'
p317
sg10
S'/usr/local/lib/python2.7/dist-packages/django/utils/__init__'
p318
sg12
g13
(g14
g15
NtRp319
(dp320
g18
I1
sg19
I0
sg20
I0
sg21
I0
sg22
I0
sg23
I0
sg24
I0
sbssg25
S'\xca\xf5\x9f\x7f\x88\xdfa\x831|T\x1d\xbc}\xa5v'
p321
ssS'_usr_local_lib_python2_7_dist-packages_django_test_utils'
p322
(dp323
g6
(dp324
g8
S'_usr_local_lib_python2_7_dist-packages_django_test_utils.html'
p325
sg10
S'/usr/local/lib/python2.7/dist-packages/django/test/utils'
p326
sg12
g13
(g14
g15
NtRp327
(dp328
g18
I1
sg19
I0
sg20
I334
sg21
I0
sg22
I0
sg23
I254
sg24
I0
sbssg25
S"\x88\xf3w\xa9'\xa87J\xc8\xb4,\xcd\x12\xf65\x8f"
p329
ssS'_usr_local_lib_python2_7_dist-packages_django_db_transaction'
p330
(dp331
g6
(dp332
g8
S'_usr_local_lib_python2_7_dist-packages_django_db_transaction.html'
p333
sg10
S'/usr/local/lib/python2.7/dist-packages/django/db/transaction'
p334
sg12
g13
(g14
g15
NtRp335
(dp336
g18
I1
sg19
I0
sg20
I121
sg21
I0
sg22
I0
sg23
I99
sg24
I0
sbssg25
S'\x04y\xdd\xf8)|\xd4\xf7\xfe\xdc\x93\xd3\xe7j\xebZ'
p337
ssS'_usr_local_lib_python2_7_dist-packages_django_template_loader'
p338
(dp339
g6
(dp340
g8
S'_usr_local_lib_python2_7_dist-packages_django_template_loader.html'
p341
sg10
S'/usr/local/lib/python2.7/dist-packages/django/template/loader'
p342
sg12
g13
(g14
g15
NtRp343
(dp344
g18
I1
sg19
I0
sg20
I73
sg21
I0
sg22
I0
sg23
I56
sg24
I0
sbssg25
S'\xd1\xff\x114\x13\x02\xe7\x96\xd8>&\xcc\x81G\x055'
p345
ssS'_usr_local_lib_python2_7_dist-packages_django_core_files_locks'
p346
(dp347
g6
(dp348
g8
S'_usr_local_lib_python2_7_dist-packages_django_core_files_locks.html'
p349
sg10
S'/usr/local/lib/python2.7/dist-packages/django/core/files/locks'
p350
sg12
g13
(g14
g15
NtRp351
(dp352
g18
I1
sg19
I0
sg20
I57
sg21
I0
sg22
I0
sg23
I46
sg24
I0
sbssg25
S';4F\xa2\x0bH\xcbk>\x84\x93\x9f\x0f3\xb1\xc5'
p353
ssS'_usr_local_lib_python2_7_dist-packages_django_forms_widgets'
p354
(dp355
g6
(dp356
g8
S'_usr_local_lib_python2_7_dist-packages_django_forms_widgets.html'
p357
sg10
S'/usr/local/lib/python2.7/dist-packages/django/forms/widgets'
p358
sg12
g13
(g14
g15
NtRp359
(dp360
g18
I1
sg19
I0
sg20
I508
sg21
I0
sg22
I0
sg23
I318
sg24
I0
sbssg25
S'\xf9\xf1\xfe\xe3t\x92\xdcb\x9e\xbf\x15j1\xfb!\xea'
p361
ssS'_usr_local_lib_python2_7_dist-packages_django_core_mail___init__'
p362
(dp363
g6
(dp364
g8
S'_usr_local_lib_python2_7_dist-packages_django_core_mail___init__.html'
p365
sg10
S'/usr/local/lib/python2.7/dist-packages/django/core/mail/__init__'
p366
sg12
g13
(g14
g15
NtRp367
(dp368
g18
I1
sg19
I0
sg20
I33
sg21
I0
sg22
I0
sg23
I22
sg24
I0
sbssg25
S'\xe9\xab\x14M=\x19?\x03\xec\xf3\xfa\x8b?\x02~\xd6'
p369
ssS'_usr_local_lib_python2_7_dist-packages_django_template_base'
p370
(dp371
g6
(dp372
g8
S'_usr_local_lib_python2_7_dist-packages_django_template_base.html'
p373
sg10
S'/usr/local/lib/python2.7/dist-packages/django/template/base'
p374
sg12
g13
(g14
g15
NtRp375
(dp376
g18
I1
sg19
I0
sg20
I785
sg21
I0
sg22
I0
sg23
I581
sg24
I0
sbssg25
S'%\xf7\x04}Fz\xfd<\xe7\xacIs\xa3\xa1\xf0\xde'
p377
ssS'_usr_local_lib_python2_7_dist-packages_django_core_checks_security_csrf'
p378
(dp379
g6
(dp380
g8
S'_usr_local_lib_python2_7_dist-packages_django_core_checks_security_csrf.html'
p381
sg10
S'/usr/local/lib/python2.7/dist-packages/django/core/checks/security/csrf'
p382
sg12
g13
(g14
g15
NtRp383
(dp384
g18
I1
sg19
I0
sg20
I16
sg21
I0
sg22
I0
sg23
I7
sg24
I0
sbssg25
S'F/%0\x15\x9f\x97S\xd8\x08\xae\xf4\xc3u\\\xf7'
p385
ssS'_usr_local_lib_python2_7_dist-packages_django_template_backends___init__'
p386
(dp387
g6
(dp388
g8
S'_usr_local_lib_python2_7_dist-packages_django_template_backends___init__.html'
p389
sg10
S'/usr/local/lib/python2.7/dist-packages/django/template/backends/__init__'
p390
sg12
g13
(g14
g15
NtRp391
(dp392
g18
I1
sg19
I0
sg20
I0
sg21
I0
sg22
I0
sg23
I0
sg24
I0
sbssg25
S'\xca\xf5\x9f\x7f\x88\xdfa\x831|T\x1d\xbc}\xa5v'
p393
ssS'_usr_local_lib_python2_7_dist-packages_django_core_management_commands___init__'
p394
(dp395
g6
(dp396
g8
S'_usr_local_lib_python2_7_dist-packages_django_core_management_commands___init__.html'
p397
sg10
S'/usr/local/lib/python2.7/dist-packages/django/core/management/commands/__init__'
p398
sg12
g13
(g14
g15
NtRp399
(dp400
g18
I1
sg19
I0
sg20
I0
sg21
I0
sg22
I0
sg23
I0
sg24
I0
sbssg25
S'\xca\xf5\x9f\x7f\x88\xdfa\x831|T\x1d\xbc}\xa5v'
p401
ssS'_usr_local_lib_python2_7_dist-packages_django_utils_dateformat'
p402
(dp403
g6
(dp404
g8
S'_usr_local_lib_python2_7_dist-packages_django_utils_dateformat.html'
p405
sg10
S'/usr/local/lib/python2.7/dist-packages/django/utils/dateformat'
p406
sg12
g13
(g14
g15
NtRp407
(dp408
g18
I1
sg19
I0
sg20
I184
sg21
I0
sg22
I0
sg23
I124
sg24
I0
sbssg25
S'+\xed\x99\xd7Y\x06\x1bM(<T\x87\x81N\x82R'
p409
ssS'_usr_local_lib_python2_7_dist-packages_django_conf_global_settings'
p410
(dp411
g6
(dp412
g8
S'_usr_local_lib_python2_7_dist-packages_django_conf_global_settings.html'
p413
sg10
S'/usr/local/lib/python2.7/dist-packages/django/conf/global_settings'
p414
sg12
g13
(g14
g15
NtRp415
(dp416
g18
I1
sg19
I0
sg20
I136
sg21
I0
sg22
I0
sg23
I0
sg24
I0
sbssg25
S'xeC\x9a2\x84\x13\xf8\x9e\xec\xe3\xd2~v\xd0\x02'
p417
ssS'_usr_local_lib_python2_7_dist-packages_django_core_wsgi'
p418
(dp419
g6
(dp420
g8
S'_usr_local_lib_python2_7_dist-packages_django_core_wsgi.html'
p421
sg10
S'/usr/local/lib/python2.7/dist-packages/django/core/wsgi'
p422
sg12
g13
(g14
g15
NtRp423
(dp424
g18
I1
sg19
I0
sg20
I5
sg21
I0
sg22
I0
sg23
I2
sg24
I0
sbssg25
S'\xcb\xa3\x0c\x90\xbe|\xe5}\x13v\x9f[m\xed\x86\xda'
p425
ssS'_usr_local_lib_python2_7_dist-packages_django_utils_decorators'
p426
(dp427
g6
(dp428
g8
S'_usr_local_lib_python2_7_dist-packages_django_utils_decorators.html'
p429
sg10
S'/usr/local/lib/python2.7/dist-packages/django/utils/decorators'
p430
sg12
g13
(g14
g15
NtRp431
(dp432
g18
I1
sg19
I0
sg20
I75
sg21
I0
sg22
I0
sg23
I59
sg24
I0
sbssg25
S'\xd9\xe1I\t\xd8\xac\xb3:\xb2y\xb2 \x945\xe7s'
p433
ssS'_usr_local_lib_python2_7_dist-packages_django_template_loaders_locmem'
p434
(dp435
g6
(dp436
g8
S'_usr_local_lib_python2_7_dist-packages_django_template_loaders_locmem.html'
p437
sg10
S'/usr/local/lib/python2.7/dist-packages/django/template/loaders/locmem'
p438
sg12
g13
(g14
g15
NtRp439
(dp440
g18
I1
sg19
I0
sg20
I12
sg21
I0
sg22
I0
sg23
I6
sg24
I0
sbssg25
S'\xda#|\xa1\xecq\xd4\x17d*J,\x88O\xa29'
p441
ssS'_usr_local_lib_python2_7_dist-packages_django_utils_itercompat'
p442
(dp443
g6
(dp444
g8
S'_usr_local_lib_python2_7_dist-packages_django_utils_itercompat.html'
p445
sg10
S'/usr/local/lib/python2.7/dist-packages/django/utils/itercompat'
p446
sg12
g13
(g14
g15
NtRp447
(dp448
g18
I1
sg19
I0
sg20
I6
sg21
I0
sg22
I0
sg23
I5
sg24
I0
sbssg25
S'{\xa8Y\x82\x1d\xa1\xda\xea^p\x02\x9b\x03\xf0M$'
p449
ssS'_usr_local_lib_python2_7_dist-packages_django_core_checks_messages'
p450
(dp451
g6
(dp452
g8
S'_usr_local_lib_python2_7_dist-packages_django_core_checks_messages.html'
p453
sg10
S'/usr/local/lib/python2.7/dist-packages/django/core/checks/messages'
p454
sg12
g13
(g14
g15
NtRp455
(dp456
g18
I1
sg19
I0
sg20
I54
sg21
I0
sg22
I0
sg23
I21
sg24
I0
sbssg25
S'xt|53\xf4\xac\x9c\xda\x16L\xb8\x1b{\x1b\xed'
p457
ssS'_usr_local_lib_python2_7_dist-packages_django_core_files_base'
p458
(dp459
g6
(dp460
g8
S'_usr_local_lib_python2_7_dist-packages_django_core_files_base.html'
p461
sg10
S'/usr/local/lib/python2.7/dist-packages/django/core/files/base'
p462
sg12
g13
(g14
g15
NtRp463
(dp464
g18
I1
sg19
I0
sg20
I119
sg21
I0
sg22
I0
sg23
I80
sg24
I0
sbssg25
S'D\xba:H\x8b\xa9\xbd\xd5\xcdL\x85\xec\x91\xff<\x17'
p465
ssS'_usr_local_lib_python2_7_dist-packages_django_conf___init__'
p466
(dp467
g6
(dp468
g8
S'_usr_local_lib_python2_7_dist-packages_django_conf___init__.html'
p469
sg10
S'/usr/local/lib/python2.7/dist-packages/django/conf/__init__'
p470
sg12
g13
(g14
g15
NtRp471
(dp472
g18
I1
sg19
I0
sg20
I87
sg21
I0
sg22
I0
sg23
I57
sg24
I0
sbssg25
S'\xc9\xc0\x18\x93\xa9i`\xf6![\x0b\xfb\xf0m\x8be'
p473
ssS'_usr_local_lib_python2_7_dist-packages_django_utils_text'
p474
(dp475
g6
(dp476
g8
S'_usr_local_lib_python2_7_dist-packages_django_utils_text.html'
p477
sg10
S'/usr/local/lib/python2.7/dist-packages/django/utils/text'
p478
sg12
g13
(g14
g15
NtRp479
(dp480
g18
I1
sg19
I0
sg20
I242
sg21
I0
sg22
I0
sg23
I178
sg24
I0
sbssg25
S'z\xbb\xea\x82\xd8lU<4\x03\xff+4W\x13\xe2'
p481
ssS'_usr_local_lib_python2_7_dist-packages_django_test_html'
p482
(dp483
g6
(dp484
g8
S'_usr_local_lib_python2_7_dist-packages_django_test_html.html'
p485
sg10
S'/usr/local/lib/python2.7/dist-packages/django/test/html'
p486
sg12
g13
(g14
g15
NtRp487
(dp488
g18
I1
sg19
I0
sg20
I166
sg21
I0
sg22
I0
sg23
I128
sg24
I0
sbssg25
S'\x0cX\x0c\x10\x89:)\xb6\xa2\x13\x89\xeb\xb28\x9e\xb7'
p489
ssS'_usr_local_lib_python2_7_dist-packages_django_utils_numberformat'
p490
(dp491
g6
(dp492
g8
S'_usr_local_lib_python2_7_dist-packages_django_utils_numberformat.html'
p493
sg10
S'/usr/local/lib/python2.7/dist-packages/django/utils/numberformat'
p494
sg12
g13
(g14
g15
NtRp495
(dp496
g18
I1
sg19
I0
sg20
I34
sg21
I0
sg22
I0
sg23
I29
sg24
I0
sbssg25
S'm\x00+\xd0\x932\x01\x7f\x05$\xc82\xf0\xdc\x84\xd9'
p497
ssS'_usr_local_lib_python2_7_dist-packages_django_utils_timezone'
p498
(dp499
g6
(dp500
g8
S'_usr_local_lib_python2_7_dist-packages_django_utils_timezone.html'
p501
sg10
S'/usr/local/lib/python2.7/dist-packages/django/utils/timezone'
p502
sg12
g13
(g14
g15
NtRp503
(dp504
g18
I1
sg19
I0
sg20
I147
sg21
I0
sg22
I0
sg23
I94
sg24
I0
sbssg25
S'\xfa]\xb4\x0b\xecG\x96pi\x8f\x16\x98\x04\xb82\xd2'
p505
ssS'_usr_local_lib_python2_7_dist-packages_django_utils_safestring'
p506
(dp507
g6
(dp508
g8
S'_usr_local_lib_python2_7_dist-packages_django_utils_safestring.html'
p509
sg10
S'/usr/local/lib/python2.7/dist-packages/django/utils/safestring'
p510
sg12
g13
(g14
g15
NtRp511
(dp512
g18
I1
sg19
I0
sg20
I63
sg21
I0
sg22
I0
sg23
I37
sg24
I0
sbssg25
S't\xbe|\x92\xb6f\xc6\xd0u\xad]S\x98kX\xdd'
p513
ssS'_usr_local_lib_python2_7_dist-packages_django_http_utils'
p514
(dp515
g6
(dp516
g8
S'_usr_local_lib_python2_7_dist-packages_django_http_utils.html'
p517
sg10
S'/usr/local/lib/python2.7/dist-packages/django/http/utils'
p518
sg12
g13
(g14
g15
NtRp519
(dp520
g18
I1
sg19
I0
sg20
I15
sg21
I0
sg22
I0
sg23
I13
sg24
I0
sbssg25
S'\xef\x96w{\xa1\xb4$\xafB\xd4K\xfa\xf9\xa3U\x8d'
p521
ssS'_usr_local_lib_python2_7_dist-packages_django_core_servers_basehttp'
p522
(dp523
g6
(dp524
g8
S'_usr_local_lib_python2_7_dist-packages_django_core_servers_basehttp.html'
p525
sg10
S'/usr/local/lib/python2.7/dist-packages/django/core/servers/basehttp'
p526
sg12
g13
(g14
g15
NtRp527
(dp528
g18
I1
sg19
I0
sg20
I106
sg21
I0
sg22
I0
sg23
I76
sg24
I0
sbssg25
S'\xc2\x07o\xf9\xfcH\xd5j\rt>\x1f\x1cX\xfcq'
p529
ssS'_usr_local_lib_python2_7_dist-packages_django_template_context'
p530
(dp531
g6
(dp532
g8
S'_usr_local_lib_python2_7_dist-packages_django_template_context.html'
p533
sg10
S'/usr/local/lib/python2.7/dist-packages/django/template/context'
p534
sg12
g13
(g14
g15
NtRp535
(dp536
g18
I1
sg19
I0
sg20
I149
sg21
I0
sg22
I0
sg23
I104
sg24
I0
sbssg25
S'7=LK\xe0\x91\x10\xff>8\x87\xd6S\x01\x9e\xdc'
p537
ssS'_usr_local_lib_python2_7_dist-packages_django_db_models_sql_query'
p538
(dp539
g6
(dp540
g8
S'_usr_local_lib_python2_7_dist-packages_django_db_models_sql_query.html'
p541
sg10
S'/usr/local/lib/python2.7/dist-packages/django/db/models/sql/query'
p542
sg12
g13
(g14
g15
NtRp543
(dp544
g18
I1
sg19
I0
sg20
I1068
sg21
I0
sg22
I0
sg23
I945
sg24
I0
sbssg25
S'\x00\x03\xf6\x84\xc3\xe3\xed6\x7fI\x1c+\xaa\x9f\xc4\xb4'
p545
ssS'_usr_local_lib_python2_7_dist-packages_django_utils_functional'
p546
(dp547
g6
(dp548
g8
S'_usr_local_lib_python2_7_dist-packages_django_utils_functional.html'
p549
sg10
S'/usr/local/lib/python2.7/dist-packages/django/utils/functional'
p550
sg12
g13
(g14
g15
NtRp551
(dp552
g18
I1
sg19
I0
sg20
I231
sg21
I0
sg22
I0
sg23
I120
sg24
I0
sbssg25
S"P\x9f\x0f\xc1\x9f\xb8\x1bE'\xf4`\xbb[~\xfc\xaa"
p553
ssS'_usr_local_lib_python2_7_dist-packages_django_utils_tree'
p554
(dp555
g6
(dp556
g8
S'_usr_local_lib_python2_7_dist-packages_django_utils_tree.html'
p557
sg10
S'/usr/local/lib/python2.7/dist-packages/django/utils/tree'
p558
sg12
g13
(g14
g15
NtRp559
(dp560
g18
I1
sg19
I0
sg20
I52
sg21
I0
sg22
I0
sg23
I36
sg24
I0
sbssg25
S'~\xech\xa8\xfc?\x04\t\x99o\n\xc3\xcaJz{'
p561
ssS'_usr_local_lib_python2_7_dist-packages_django_utils_six'
p562
(dp563
g6
(dp564
g8
S'_usr_local_lib_python2_7_dist-packages_django_utils_six.html'
p565
sg10
S'/usr/local/lib/python2.7/dist-packages/django/utils/six'
p566
sg12
g13
(g14
g15
NtRp567
(dp568
g18
I1
sg19
I0
sg20
I442
sg21
I0
sg22
I0
sg23
I200
sg24
I0
sbssg25
S'n\xa9<\xc8T\x1f\xee2~~\xae\xdb\xec\xae\xde\x86'
p569
ssS'_usr_local_lib_python2_7_dist-packages_django_utils_termcolors'
p570
(dp571
g6
(dp572
g8
S'_usr_local_lib_python2_7_dist-packages_django_utils_termcolors.html'
p573
sg10
S'/usr/local/lib/python2.7/dist-packages/django/utils/termcolors'
p574
sg12
g13
(g14
g15
NtRp575
(dp576
g18
I1
sg19
I0
sg20
I57
sg21
I0
sg22
I0
sg23
I43
sg24
I0
sbssg25
S'"\x81\xec\xef\x13\xa0\x00\x07\x81e\xa5\xcc\xf8\xd1\x9e\xd1'
p577
ssS'_usr_local_lib_python2_7_dist-packages_django_template_loaders___init__'
p578
(dp579
g6
(dp580
g8
S'_usr_local_lib_python2_7_dist-packages_django_template_loaders___init__.html'
p581
sg10
S'/usr/local/lib/python2.7/dist-packages/django/template/loaders/__init__'
p582
sg12
g13
(g14
g15
NtRp583
(dp584
g18
I1
sg19
I0
sg20
I0
sg21
I0
sg22
I0
sg23
I0
sg24
I0
sbssg25
S'\xca\xf5\x9f\x7f\x88\xdfa\x831|T\x1d\xbc}\xa5v'
p585
ssS'_usr_local_lib_python2_7_dist-packages_django_db_models_fields_files'
p586
(dp587
g6
(dp588
g8
S'_usr_local_lib_python2_7_dist-packages_django_db_models_fields_files.html'
p589
sg10
S'/usr/local/lib/python2.7/dist-packages/django/db/models/fields/files'
p590
sg12
g13
(g14
g15
NtRp591
(dp592
g18
I1
sg19
I0
sg20
I253
sg21
I0
sg22
I0
sg23
I174
sg24
I0
sbssg25
S'7|\x0b\\t@\x832Q\xe1F\xd4 \x1b\x1c*'
p593
ssS'_usr_local_lib_python2_7_dist-packages_django_core_checks___init__'
p594
(dp595
g6
(dp596
g8
S'_usr_local_lib_python2_7_dist-packages_django_core_checks___init__.html'
p597
sg10
S'/usr/local/lib/python2.7/dist-packages/django/core/checks/__init__'
p598
sg12
g13
(g14
g15
NtRp599
(dp600
g18
I1
sg19
I0
sg20
I9
sg21
I0
sg22
I0
sg23
I0
sg24
I0
sbssg25
S'\x0f\xcf\x81\x1e\x08Ls%[-\x15B\xe1\x8b\x99\xf3'
p601
ssS'_usr_local_lib_python2_7_dist-packages_django_template_backends_django'
p602
(dp603
g6
(dp604
g8
S'_usr_local_lib_python2_7_dist-packages_django_template_backends_django.html'
p605
sg10
S'/usr/local/lib/python2.7/dist-packages/django/template/backends/django'
p606
sg12
g13
(g14
g15
NtRp607
(dp608
g18
I1
sg19
I0
sg20
I34
sg21
I0
sg22
I0
sg23
I18
sg24
I0
sbssg25
S"\x1a\xf1\xf2G\x17\x15\x99b'F\xfd[@\xfd\xe9g"
p609
ssS'_usr_local_lib_python2_7_dist-packages_django_core_files_images'
p610
(dp611
g6
(dp612
g8
S'_usr_local_lib_python2_7_dist-packages_django_core_files_images.html'
p613
sg10
S'/usr/local/lib/python2.7/dist-packages/django/core/files/images'
p614
sg12
g13
(g14
g15
NtRp615
(dp616
g18
I1
sg19
I0
sg20
I43
sg21
I0
sg22
I0
sg23
I34
sg24
I0
sbssg25
S'D\xa8\xe10V\xc2-\xc2\x83\x9f\xb8\x11\x83\xa9\x11\xa5'
p617
ssS'_usr_local_lib_python2_7_dist-packages_django_core_checks_security___init__'
p618
(dp619
g6
(dp620
g8
S'_usr_local_lib_python2_7_dist-packages_django_core_checks_security___init__.html'
p621
sg10
S'/usr/local/lib/python2.7/dist-packages/django/core/checks/security/__init__'
p622
sg12
g13
(g14
g15
NtRp623
(dp624
g18
I1
sg19
I0
sg20
I0
sg21
I0
sg22
I0
sg23
I0
sg24
I0
sbssg25
S'\xca\xf5\x9f\x7f\x88\xdfa\x831|T\x1d\xbc}\xa5v'
p625
ssS'_usr_local_lib_python2_7_dist-packages_django_core_checks_compatibility_django_1_7_0'
p626
(dp627
g6
(dp628
g8
S'_usr_local_lib_python2_7_dist-packages_django_core_checks_compatibility_django_1_7_0.html'
p629
sg10
S'/usr/local/lib/python2.7/dist-packages/django/core/checks/compatibility/django_1_7_0'
p630
sg12
g13
(g14
g15
NtRp631
(dp632
g18
I1
sg19
I0
sg20
I11
sg21
I0
sg22
I0
sg23
I7
sg24
I0
sbssg25
S'\xe6%+T\xc1\xd9\xe5\xa7g\x8f\x9d\xfe\xb9\x1b\xf4h'
p633
ssS'_usr_local_lib_python2_7_dist-packages_django_core_mail_message'
p634
(dp635
g6
(dp636
g8
S'_usr_local_lib_python2_7_dist-packages_django_core_mail_message.html'
p637
sg10
S'/usr/local/lib/python2.7/dist-packages/django/core/mail/message'
p638
sg12
g13
(g14
g15
NtRp639
(dp640
g18
I1
sg19
I0
sg20
I252
sg21
I0
sg22
I0
sg23
I192
sg24
I0
sbssg25
S'/\xe9\xa86\xb8\xf3s\x82\x81\x11\x08*]$\xc0\x99'
p641
ssS'_usr_local_lib_python2_7_dist-packages_django_apps_config'
p642
(dp643
g6
(dp644
g8
S'_usr_local_lib_python2_7_dist-packages_django_apps_config.html'
p645
sg10
S'/usr/local/lib/python2.7/dist-packages/django/apps/config'
p646
sg12
g13
(g14
g15
NtRp647
(dp648
g18
I1
sg19
I0
sg20
I84
sg21
I0
sg22
I0
sg23
I68
sg24
I0
sbssg25
S',\xc3\x17\xfe\xf9\xe2F&85\xe3(\x80\xca\xf6E'
p649
ssS'_usr_local_lib_python2_7_dist-packages_django_db_models_sql_constants'
p650
(dp651
g6
(dp652
g8
S'_usr_local_lib_python2_7_dist-packages_django_db_models_sql_constants.html'
p653
sg10
S'/usr/local/lib/python2.7/dist-packages/django/db/models/sql/constants'
p654
sg12
g13
(g14
g15
NtRp655
(dp656
g18
I1
sg19
I0
sg20
I11
sg21
I0
sg22
I0
sg23
I0
sg24
I0
sbssg25
S'\xcc^\x81n?\xc4.\x84\x0c\xe2^\x06-t\x15&'
p657
ssS'_usr_local_lib_python2_7_dist-packages_django_utils_dateparse'
p658
(dp659
g6
(dp660
g8
S'_usr_local_lib_python2_7_dist-packages_django_utils_dateparse.html'
p661
sg10
S'/usr/local/lib/python2.7/dist-packages/django/utils/dateparse'
p662
sg12
g13
(g14
g15
NtRp663
(dp664
g18
I1
sg19
I0
sg20
I50
sg21
I0
sg22
I0
sg23
I37
sg24
I0
sbssg25
S'\\\x8berV\xc9\x9f\xa93Q\x11\xb4?D\xf2\xee'
p665
ssS'_usr_local_lib_python2_7_dist-packages_django_utils_crypto'
p666
(dp667
g6
(dp668
g8
S'_usr_local_lib_python2_7_dist-packages_django_utils_crypto.html'
p669
sg10
S'/usr/local/lib/python2.7/dist-packages/django/utils/crypto'
p670
sg12
g13
(g14
g15
NtRp671
(dp672
g18
I1
sg19
I0
sg20
I87
sg21
I0
sg22
I0
sg23
I65
sg24
I0
sbssg25
S'\x1c\xef\xe4\xe5\xdbQ\x94l?\x1f0\x95\xee\xf8\xc9V'
p673
ssS'_usr_local_lib_python2_7_dist-packages_django_db_models_deletion'
p674
(dp675
g6
(dp676
g8
S'_usr_local_lib_python2_7_dist-packages_django_db_models_deletion.html'
p677
sg10
S'/usr/local/lib/python2.7/dist-packages/django/db/models/deletion'
p678
sg12
g13
(g14
g15
NtRp679
(dp680
g18
I1
sg19
I0
sg20
I167
sg21
I0
sg22
I0
sg23
I141
sg24
I0
sbssg25
S'Y [\x9f[\x99\xaf\xf96\x0b\xe6^\x99\xce\xfc\xe6'
p681
ssS'_usr_local_lib_python2_7_dist-packages_django_db_models_sql_datastructures'
p682
(dp683
g6
(dp684
g8
S'_usr_local_lib_python2_7_dist-packages_django_db_models_sql_datastructures.html'
p685
sg10
S'/usr/local/lib/python2.7/dist-packages/django/db/models/sql/datastructures'
p686
sg12
g13
(g14
g15
NtRp687
(dp688
g18
I1
sg19
I0
sg20
I65
sg21
I0
sg22
I0
sg23
I45
sg24
I0
sbssg25
S'$O\x1a\xb4\xa5~\x89\x9a\x99\x0cZ\x9c\x86\x17s\xf5'
p689
ssS'_usr_local_lib_python2_7_dist-packages_django_db_models_fields_related'
p690
(dp691
g6
(dp692
g8
S'_usr_local_lib_python2_7_dist-packages_django_db_models_fields_related.html'
p693
sg10
S'/usr/local/lib/python2.7/dist-packages/django/db/models/fields/related'
p694
sg12
g13
(g14
g15
NtRp695
(dp696
g18
I1
sg19
I0
sg20
I1295
sg21
I0
sg22
I0
sg23
I1082
sg24
I0
sbssg25
S'L,R \xc7\x8e1\x84\xadId?ESbA'
p697
ssS'_usr_local_lib_python2_7_dist-packages_django_utils_html_parser'
p698
(dp699
g6
(dp700
g8
S'_usr_local_lib_python2_7_dist-packages_django_utils_html_parser.html'
p701
sg10
S'/usr/local/lib/python2.7/dist-packages/django/utils/html_parser'
p702
sg12
g13
(g14
g15
NtRp703
(dp704
g18
I1
sg19
I0
sg20
I90
sg21
I0
sg22
I0
sg23
I80
sg24
I0
sbssg25
S'|\x83\xc9\x82\xa2w\x0b\x8e\xfed)_oY@+'
p705
ssS'_usr_local_lib_python2_7_dist-packages_django_db_models_constants'
p706
(dp707
g6
(dp708
g8
S'_usr_local_lib_python2_7_dist-packages_django_db_models_constants.html'
p709
sg10
S'/usr/local/lib/python2.7/dist-packages/django/db/models/constants'
p710
sg12
g13
(g14
g15
NtRp711
(dp712
g18
I1
sg19
I0
sg20
I1
sg21
I0
sg22
I0
sg23
I0
sg24
I0
sbssg25
S'K\x0f@\x85\xa8\x06~v\xd55D;1,\x0f\x95'
p713
ssS'_usr_local_lib_python2_7_dist-packages_django_db_models_manager'
p714
(dp715
g6
(dp716
g8
S'_usr_local_lib_python2_7_dist-packages_django_db_models_manager.html'
p717
sg10
S'/usr/local/lib/python2.7/dist-packages/django/db/models/manager'
p718
sg12
g13
(g14
g15
NtRp719
(dp720
g18
I1
sg19
I0
sg20
I149
sg21
I0
sg22
I0
sg23
I86
sg24
I0
sbssg25
S'+NB\xe1akJz\x19!\xcf-\xafxiY'
p721
ssS'_usr_local_lib_python2_7_dist-packages_django_utils_encoding'
p722
(dp723
g6
(dp724
g8
S'_usr_local_lib_python2_7_dist-packages_django_utils_encoding.html'
p725
sg10
S'/usr/local/lib/python2.7/dist-packages/django/utils/encoding'
p726
sg12
g13
(g14
g15
NtRp727
(dp728
g18
I1
sg19
I0
sg20
I116
sg21
I0
sg22
I0
sg23
I74
sg24
I0
sbssg25
S'\x17\x17z;\x9c`ji\xac\x87\x1e\x12\x972\xb6j'
p729
ssS'_usr_local_lib_python2_7_dist-packages_django_db_backends_utils'
p730
(dp731
g6
(dp732
g8
S'_usr_local_lib_python2_7_dist-packages_django_db_backends_utils.html'
p733
sg10
S'/usr/local/lib/python2.7/dist-packages/django/db/backends/utils'
p734
sg12
g13
(g14
g15
NtRp735
(dp736
g18
I1
sg19
I0
sg20
I128
sg21
I0
sg22
I0
sg23
I98
sg24
I0
sbssg25
S'\x83\xbb\x9a\xe3\x80\xca\xac\xcd~\xea_\xff1c\xc1z'
p737
ssS'_usr_local_lib_python2_7_dist-packages_django_db_models_signals'
p738
(dp739
g6
(dp740
g8
S'_usr_local_lib_python2_7_dist-packages_django_db_models_signals.html'
p741
sg10
S'/usr/local/lib/python2.7/dist-packages/django/db/models/signals'
p742
sg12
g13
(g14
g15
NtRp743
(dp744
g18
I1
sg19
I0
sg20
I43
sg21
I0
sg22
I0
sg23
I21
sg24
I0
sbssg25
S'\xd3\xba+\x1eM\xbb[n]\xeb\xe7W\x17\x0e\xd6Q'
p745
ssS'_usr_local_lib_python2_7_dist-packages_django_test___init__'
p746
(dp747
g6
(dp748
g8
S'_usr_local_lib_python2_7_dist-packages_django_test___init__.html'
p749
sg10
S'/usr/local/lib/python2.7/dist-packages/django/test/__init__'
p750
sg12
g13
(g14
g15
NtRp751
(dp752
g18
I1
sg19
I0
sg20
I11
sg21
I0
sg22
I0
sg23
I0
sg24
I0
sbssg25
S'\xeeGX\xa7\xd1\xdf\xff\x80\x075;\x9ab\x9d?b'
p753
ssS'_usr_local_lib_python2_7_dist-packages_django_db_models_fields_subclassing'
p754
(dp755
g6
(dp756
g8
S'_usr_local_lib_python2_7_dist-packages_django_db_models_fields_subclassing.html'
p757
sg10
S'/usr/local/lib/python2.7/dist-packages/django/db/models/fields/subclassing'
p758
sg12
g13
(g14
g15
NtRp759
(dp760
g18
I1
sg19
I0
sg20
I24
sg21
I0
sg22
I0
sg23
I15
sg24
I0
sbssg25
S'r\x8e\xb0\xcc\xff\xb2uL\n\xfbu\xa3+\xbf\x08\x81'
p761
ssS'_usr_local_lib_python2_7_dist-packages_django_core_checks_security_sessions'
p762
(dp763
g6
(dp764
g8
S'_usr_local_lib_python2_7_dist-packages_django_core_checks_security_sessions.html'
p765
sg10
S'/usr/local/lib/python2.7/dist-packages/django/core/checks/security/sessions'
p766
sg12
g13
(g14
g15
NtRp767
(dp768
g18
I1
sg19
I0
sg20
I36
sg21
I0
sg22
I0
sg23
I20
sg24
I0
sbssg25
S'\x0e\x05\xe8\x01Q\x87\xf4\xbe\x18w\x13\xa82\xe1(\x19'
p769
ssS'_usr_local_lib_python2_7_dist-packages_django_core_checks_registry'
p770
(dp771
g6
(dp772
g8
S'_usr_local_lib_python2_7_dist-packages_django_core_checks_registry.html'
p773
sg10
S'/usr/local/lib/python2.7/dist-packages/django/core/checks/registry'
p774
sg12
g13
(g14
g15
NtRp775
(dp776
g18
I1
sg19
I0
sg20
I51
sg21
I0
sg22
I0
sg23
I16
sg24
I0
sbssg25
S'\x81\xd8\xc2\x97P\x16F\xe8\x1b\xecC\x07x\xc4jD'
p777
ssS'_usr_local_lib_python2_7_dist-packages_django_core_checks_security_base'
p778
(dp779
g6
(dp780
g8
S'_usr_local_lib_python2_7_dist-packages_django_core_checks_security_base.html'
p781
sg10
S'/usr/local/lib/python2.7/dist-packages/django/core/checks/security/base'
p782
sg12
g13
(g14
g15
NtRp783
(dp784
g18
I1
sg19
I0
sg20
I48
sg21
I0
sg22
I0
sg23
I22
sg24
I0
sbssg25
S'L\xb0\xaf`\xc2u\x96\x88\xb2\xe5\x0b\xbb\xa3\x9c\xa4\xfd'
p785
ssS'_usr_local_lib_python2_7_dist-packages_django_db_models_sql_where'
p786
(dp787
g6
(dp788
g8
S'_usr_local_lib_python2_7_dist-packages_django_db_models_sql_where.html'
p789
sg10
S'/usr/local/lib/python2.7/dist-packages/django/db/models/sql/where'
p790
sg12
g13
(g14
g15
NtRp791
(dp792
g18
I1
sg19
I0
sg20
I243
sg21
I0
sg22
I0
sg23
I196
sg24
I0
sbssg25
S'\xcai\xd4\x8a\x04\xd1\xc3\xad>\x89^F\x10{5 '
p793
ssS'_usr_local_lib_python2_7_dist-packages_django_utils__os'
p794
(dp795
g6
(dp796
g8
S'_usr_local_lib_python2_7_dist-packages_django_utils__os.html'
p797
sg10
S'/usr/local/lib/python2.7/dist-packages/django/utils/_os'
p798
sg12
g13
(g14
g15
NtRp799
(dp800
g18
I1
sg19
I0
sg20
I60
sg21
I0
sg22
I0
sg23
I37
sg24
I0
sbssg25
S'\xe0\x95\x885\xd4\xd5qj\xfd\x1c\x14\x05uHa\x89'
p801
ssS'_usr_local_lib_python2_7_dist-packages_django_db_models_sql___init__'
p802
(dp803
g6
(dp804
g8
S'_usr_local_lib_python2_7_dist-packages_django_db_models_sql___init__.html'
p805
sg10
S'/usr/local/lib/python2.7/dist-packages/django/db/models/sql/__init__'
p806
sg12
g13
(g14
g15
NtRp807
(dp808
g18
I1
sg19
I0
sg20
I5
sg21
I0
sg22
I0
sg23
I0
sg24
I0
sbssg25
S'\xe0&\xa6\xf7x\xac\xe6\xde\xb7\xfb\x06\xee\xe3P^g'
p809
ssS'_usr_local_lib_python2_7_dist-packages_django_db_models_fields_proxy'
p810
(dp811
g6
(dp812
g8
S'_usr_local_lib_python2_7_dist-packages_django_db_models_fields_proxy.html'
p813
sg10
S'/usr/local/lib/python2.7/dist-packages/django/db/models/fields/proxy'
p814
sg12
g13
(g14
g15
NtRp815
(dp816
g18
I1
sg19
I0
sg20
I10
sg21
I0
sg22
I0
sg23
I6
sg24
I0
sbssg25
S'A\xd5\xd6O(Iu\xb8P\xd7\xdbG]z\xe2x'
p817
ssS'_usr_local_lib_python2_7_dist-packages_django_forms_formsets'
p818
(dp819
g6
(dp820
g8
S'_usr_local_lib_python2_7_dist-packages_django_forms_formsets.html'
p821
sg10
S'/usr/local/lib/python2.7/dist-packages/django/forms/formsets'
p822
sg12
g13
(g14
g15
NtRp823
(dp824
g18
I1
sg19
I0
sg20
I223
sg21
I0
sg22
I0
sg23
I160
sg24
I0
sbssg25
S'\xe8\xb2\x1f#\xcf\x9d}q\xef&\x12\xe9z\x001['
p825
ssS'_usr_local_lib_python2_7_dist-packages_django_core_handlers_base'
p826
(dp827
g6
(dp828
g8
S'_usr_local_lib_python2_7_dist-packages_django_core_handlers_base.html'
p829
sg10
S'/usr/local/lib/python2.7/dist-packages/django/core/handlers/base'
p830
sg12
g13
(g14
g15
NtRp831
(dp832
g18
I1
sg19
I0
sg20
I155
sg21
I0
sg22
I0
sg23
I131
sg24
I0
sbssg25
S'tf\x82\xc0\xb75\xf0R\x8b\xe0\x1d\xf0\x99\xf6~B'
p833
ssS'_usr_local_lib_python2_7_dist-packages_django_core_checks_model_checks'
p834
(dp835
g6
(dp836
g8
S'_usr_local_lib_python2_7_dist-packages_django_core_checks_model_checks.html'
p837
sg10
S'/usr/local/lib/python2.7/dist-packages/django/core/checks/model_checks'
p838
sg12
g13
(g14
g15
NtRp839
(dp840
g18
I1
sg19
I0
sg20
I28
sg21
I0
sg22
I0
sg23
I19
sg24
I0
sbssg25
S",}\x1c\xd7'\xf8X\xd1\xdf\xec8\x0cy\xb4(W"
p841
ssS'_usr_local_lib_python2_7_dist-packages_django_db_models_query'
p842
(dp843
g6
(dp844
g8
S'_usr_local_lib_python2_7_dist-packages_django_db_models_query.html'
p845
sg10
S'/usr/local/lib/python2.7/dist-packages/django/db/models/query'
p846
sg12
g13
(g14
g15
NtRp847
(dp848
g18
I1
sg19
I0
sg20
I917
sg21
I0
sg22
I0
sg23
I761
sg24
I0
sbssg25
S"\xa9X\xd3\xaco=\xe9'\x1f\x01`\xee\xa2\x99\x13u"
p849
ssS'_usr_local_lib_python2_7_dist-packages_django_test_testcases'
p850
(dp851
g6
(dp852
g8
S'_usr_local_lib_python2_7_dist-packages_django_test_testcases.html'
p853
sg10
S'/usr/local/lib/python2.7/dist-packages/django/test/testcases'
p854
sg12
g13
(g14
g15
NtRp855
(dp856
g18
I1
sg19
I0
sg20
I636
sg21
I0
sg22
I0
sg23
I493
sg24
I0
sbssg25
S'\xdc\x8f\x0f\x94\xe8km\x1c\xb1\xcc\xfd\rW\x0f\xd5\x16'
p857
ssS'_usr_local_lib_python2_7_dist-packages_django_views_debug'
p858
(dp859
g6
(dp860
g8
S'_usr_local_lib_python2_7_dist-packages_django_views_debug.html'
p861
sg10
S'/usr/local/lib/python2.7/dist-packages/django/views/debug'
p862
sg12
g13
(g14
g15
NtRp863
(dp864
g18
I1
sg19
I0
sg20
I330
sg21
I0
sg22
I0
sg23
I276
sg24
I0
sbssg25
S'j\x14p\xdc\x86\x812\x15\x03\xd4\xfc\xe3\xa2Z(\x9f'
p865
ssS'_usr_local_lib_python2_7_dist-packages_django_forms_fields'
p866
(dp867
g6
(dp868
g8
S'_usr_local_lib_python2_7_dist-packages_django_forms_fields.html'
p869
sg10
S'/usr/local/lib/python2.7/dist-packages/django/forms/fields'
p870
sg12
g13
(g14
g15
NtRp871
(dp872
g18
I1
sg19
I0
sg20
I723
sg21
I0
sg22
I0
sg23
I533
sg24
I0
sbssg25
S'\x02*\xc6\x95\x0f\xb9\xd7\xa5\x88\x8a\x86RA\x0f\x93\xd8'
p873
ssS'_usr_local_lib_python2_7_dist-packages_django_core_servers___init__'
p874
(dp875
g6
(dp876
g8
S'_usr_local_lib_python2_7_dist-packages_django_core_servers___init__.html'
p877
sg10
S'/usr/local/lib/python2.7/dist-packages/django/core/servers/__init__'
p878
sg12
g13
(g14
g15
NtRp879
(dp880
g18
I1
sg19
I0
sg20
I0
sg21
I0
sg22
I0
sg23
I0
sg24
I0
sbssg25
S'\xca\xf5\x9f\x7f\x88\xdfa\x831|T\x1d\xbc}\xa5v'
p881
ssS'_usr_local_lib_python2_7_dist-packages_django_core_management___init__'
p882
(dp883
g6
(dp884
g8
S'_usr_local_lib_python2_7_dist-packages_django_core_management___init__.html'
p885
sg10
S'/usr/local/lib/python2.7/dist-packages/django/core/management/__init__'
p886
sg12
g13
(g14
g15
NtRp887
(dp888
g18
I1
sg19
I0
sg20
I160
sg21
I0
sg22
I0
sg23
I135
sg24
I0
sbssg25
S'\xec\xc9\xdc\x14\x0f\x92\x1b\x93\x967/\xc6\x87el\xaa'
p889
ssS'_usr_local_lib_python2_7_dist-packages_django_dispatch_dispatcher'
p890
(dp891
g6
(dp892
g8
S'_usr_local_lib_python2_7_dist-packages_django_dispatch_dispatcher.html'
p893
sg10
S'/usr/local/lib/python2.7/dist-packages/django/dispatch/dispatcher'
p894
sg12
g13
(g14
g15
NtRp895
(dp896
g18
I1
sg19
I0
sg20
I140
sg21
I0
sg22
I0
sg23
I85
sg24
I0
sbssg25
S'\xa8 <\xa9fz\xae\x08\xa56u\xb7\t\xa388'
p897
ssS'_usr_local_lib_python2_7_dist-packages_django_utils_timesince'
p898
(dp899
g6
(dp900
g8
S'_usr_local_lib_python2_7_dist-packages_django_utils_timesince.html'
p901
sg10
S'/usr/local/lib/python2.7/dist-packages/django/utils/timesince'
p902
sg12
g13
(g14
g15
NtRp903
(dp904
g18
I1
sg19
I0
sg20
I30
sg21
I0
sg22
I0
sg23
I22
sg24
I0
sbssg25
S'e$\x19_*\xc8<mN=o\x94\xacp\x89\xd8'
p905
ssS'_usr_local_lib_python2_7_dist-packages_django_core_signals'
p906
(dp907
g6
(dp908
g8
S'_usr_local_lib_python2_7_dist-packages_django_core_signals.html'
p909
sg10
S'/usr/local/lib/python2.7/dist-packages/django/core/signals'
p910
sg12
g13
(g14
g15
NtRp911
(dp912
g18
I1
sg19
I0
sg20
I5
sg21
I0
sg22
I0
sg23
I0
sg24
I0
sbssg25
S'\x17\xdaC\xcdq\t}\xae\x14^\x83x\xc2r\x83E'
p913
ssS'_usr_local_lib_python2_7_dist-packages_django_views___init__'
p914
(dp915
g6
(dp916
g8
S'_usr_local_lib_python2_7_dist-packages_django_views___init__.html'
p917
sg10
S'/usr/local/lib/python2.7/dist-packages/django/views/__init__'
p918
sg12
g13
(g14
g15
NtRp919
(dp920
g18
I1
sg19
I0
sg20
I0
sg21
I0
sg22
I0
sg23
I0
sg24
I0
sbssg25
S'\xca\xf5\x9f\x7f\x88\xdfa\x831|T\x1d\xbc}\xa5v'
p921
ssS'_usr_local_lib_python2_7_dist-packages_django_dispatch_weakref_backports'
p922
(dp923
g6
(dp924
g8
S'_usr_local_lib_python2_7_dist-packages_django_dispatch_weakref_backports.html'
p925
sg10
S'/usr/local/lib/python2.7/dist-packages/django/dispatch/weakref_backports'
p926
sg12
g13
(g14
g15
NtRp927
(dp928
g18
I1
sg19
I0
sg20
I40
sg21
I0
sg22
I0
sg23
I22
sg24
I0
sbssg25
S'\xd9\xd0\x95i.\x92\x90"\x95\xc9^\xe8A\x82\x81\xa8'
p929
ssS'_usr_local_lib_python2_7_dist-packages_django_dispatch___init__'
p930
(dp931
g6
(dp932
g8
S'_usr_local_lib_python2_7_dist-packages_django_dispatch___init__.html'
p933
sg10
S'/usr/local/lib/python2.7/dist-packages/django/dispatch/__init__'
p934
sg12
g13
(g14
g15
NtRp935
(dp936
g18
I1
sg19
I0
sg20
I1
sg21
I0
sg22
I0
sg23
I0
sg24
I0
sbssg25
S'D\x18\xd9\x97? \x11\xf4^{\xf6U\x0e\xef\x7fZ'
p937
ssS'_usr_local_lib_python2_7_dist-packages_django_utils_datastructures'
p938
(dp939
g6
(dp940
g8
S'_usr_local_lib_python2_7_dist-packages_django_utils_datastructures.html'
p941
sg10
S'/usr/local/lib/python2.7/dist-packages/django/utils/datastructures'
p942
sg12
g13
(g14
g15
NtRp943
(dp944
g18
I1
sg19
I0
sg20
I319
sg21
I0
sg22
I0
sg23
I206
sg24
I0
sbssg25
S'\xac\xf7\x02\xb1\x02\xeb\x01m2]I\xcc\x08\x93\x84$'
p945
ssS'_usr_local_lib_python2_7_dist-packages_django_core_management_sql'
p946
(dp947
g6
(dp948
g8
S'_usr_local_lib_python2_7_dist-packages_django_core_management_sql.html'
p949
sg10
S'/usr/local/lib/python2.7/dist-packages/django/core/management/sql'
p950
sg12
g13
(g14
g15
NtRp951
(dp952
g18
I1
sg19
I0
sg20
I155
sg21
I0
sg22
I0
sg23
I132
sg24
I0
sbssg25
S'\x96e\x83\x17\xa1p\xdaS[\xe9r\xc4H\xf4\tF'
p953
ssS'_usr_local_lib_python2_7_dist-packages_django_template_utils'
p954
(dp955
g6
(dp956
g8
S'_usr_local_lib_python2_7_dist-packages_django_template_utils.html'
p957
sg10
S'/usr/local/lib/python2.7/dist-packages/django/template/utils'
p958
sg12
g13
(g14
g15
NtRp959
(dp960
g18
I1
sg19
I0
sg20
I68
sg21
I0
sg22
I0
sg23
I46
sg24
I0
sbssg25
S'\xd67pB\x0b\x89AE\xf1\xe8\xf5\xe3\xcb\xf4ks'
p961
ssS'_usr_local_lib_python2_7_dist-packages_django_core_files_uploadhandler'
p962
(dp963
g6
(dp964
g8
S'_usr_local_lib_python2_7_dist-packages_django_core_files_uploadhandler.html'
p965
sg10
S'/usr/local/lib/python2.7/dist-packages/django/core/files/uploadhandler'
p966
sg12
g13
(g14
g15
NtRp967
(dp968
g18
I1
sg19
I0
sg20
I78
sg21
I0
sg22
I0
sg23
I42
sg24
I0
sbssg25
S'\xb5\xa9#\xeb\xc1zk\xf9\xb0X\xb5C\xb7\x01C\xd1'
p969
ssS'_usr_local_lib_python2_7_dist-packages_django_forms___init__'
p970
(dp971
g6
(dp972
g8
S'_usr_local_lib_python2_7_dist-packages_django_forms___init__.html'
p973
sg10
S'/usr/local/lib/python2.7/dist-packages/django/forms/__init__'
p974
sg12
g13
(g14
g15
NtRp975
(dp976
g18
I1
sg19
I0
sg20
I6
sg21
I0
sg22
I0
sg23
I0
sg24
I0
sbssg25
S'\xd9\x11j\xf9_X\x911mp\xbe\xe8s^\x8f\x84'
p977
ssS'_usr_local_lib_python2_7_dist-packages_django_core_checks_compatibility___init__'
p978
(dp979
g6
(dp980
g8
S'_usr_local_lib_python2_7_dist-packages_django_core_checks_compatibility___init__.html'
p981
sg10
S'/usr/local/lib/python2.7/dist-packages/django/core/checks/compatibility/__init__'
p982
sg12
g13
(g14
g15
NtRp983
(dp984
g18
I1
sg19
I0
sg20
I0
sg21
I0
sg22
I0
sg23
I0
sg24
I0
sbssg25
S'\xca\xf5\x9f\x7f\x88\xdfa\x831|T\x1d\xbc}\xa5v'
p985
ssS'_usr_local_lib_python2_7_dist-packages_django_template_defaulttags'
p986
(dp987
g6
(dp988
g8
S'_usr_local_lib_python2_7_dist-packages_django_template_defaulttags.html'
p989
sg10
S'/usr/local/lib/python2.7/dist-packages/django/template/defaulttags'
p990
sg12
g13
(g14
g15
NtRp991
(dp992
g18
I1
sg19
I0
sg20
I659
sg21
I0
sg22
I0
sg23
I533
sg24
I0
sbssg25
S'\x84U\xac>\x98-!\xa4\x96\xa7|\x0bh\xb8P\r'
p993
ssS'_usr_local_lib_python2_7_dist-packages_django_core_handlers_wsgi'
p994
(dp995
g6
(dp996
g8
S'_usr_local_lib_python2_7_dist-packages_django_core_handlers_wsgi.html'
p997
sg10
S'/usr/local/lib/python2.7/dist-packages/django/core/handlers/wsgi'
p998
sg12
g13
(g14
g15
NtRp999
(dp1000
g18
I1
sg19
I0
sg20
I161
sg21
I0
sg22
I0
sg23
I116
sg24
I0
sbssg25
S"\xd3\xeaUq\xc7\x92\x06\xb5\xfd#\xef'\xf7\xefb\x96"
p1001
ssS'_usr_local_lib_python2_7_dist-packages_django_core_serializers_python'
p1002
(dp1003
g6
(dp1004
g8
S'_usr_local_lib_python2_7_dist-packages_django_core_serializers_python.html'
p1005
sg10
S'/usr/local/lib/python2.7/dist-packages/django/core/serializers/python'
p1006
sg12
g13
(g14
g15
NtRp1007
(dp1008
g18
I1
sg19
I0
sg20
I96
sg21
I0
sg22
I0
sg23
I76
sg24
I0
sbssg25
S'X r\xc0\xa2\xa6B\x00J}5\xb1\x9e\xe2\x97\xfd'
p1009
ssS'_usr_local_lib_python2_7_dist-packages_django_utils_duration'
p1010
(dp1011
g6
(dp1012
g8
S'_usr_local_lib_python2_7_dist-packages_django_utils_duration.html'
p1013
sg10
S'/usr/local/lib/python2.7/dist-packages/django/utils/duration'
p1014
sg12
g13
(g14
g15
NtRp1015
(dp1016
g18
I1
sg19
I0
sg20
I14
sg21
I0
sg22
I0
sg23
I13
sg24
I0
sbssg25
S"\xc6 '\x83\xa7\xdd \x8e\x0b\xab&\xcd\xa2\xe7s\xa4"
p1017
ssS'_usr_local_lib_python2_7_dist-packages_django_http_response'
p1018
(dp1019
g6
(dp1020
g8
S'_usr_local_lib_python2_7_dist-packages_django_http_response.html'
p1021
sg10
S'/usr/local/lib/python2.7/dist-packages/django/http/response'
p1022
sg12
g13
(g14
g15
NtRp1023
(dp1024
g18
I1
sg19
I0
sg20
I259
sg21
I0
sg22
I0
sg23
I155
sg24
I0
sbssg25
S'ch9\xfcx{\x1a\xf5r\x93\xe7\xcfREA\xe9'
p1025
ssS'_usr_local_lib_python2_7_dist-packages_django_db_models___init__'
p1026
(dp1027
g6
(dp1028
g8
S'_usr_local_lib_python2_7_dist-packages_django_db_models___init__.html'
p1029
sg10
S'/usr/local/lib/python2.7/dist-packages/django/db/models/__init__'
p1030
sg12
g13
(g14
g15
NtRp1031
(dp1032
g18
I1
sg19
I0
sg20
I35
sg21
I0
sg22
I0
sg23
I8
sg24
I0
sbssg25
S'\xa0\xdf\xe6\x1fRM\xa1#\x03\nu\xab>&W\x9d'
p1033
ssS'_usr_local_lib_python2_7_dist-packages_django_test_signals'
p1034
(dp1035
g6
(dp1036
g8
S'_usr_local_lib_python2_7_dist-packages_django_test_signals.html'
p1037
sg10
S'/usr/local/lib/python2.7/dist-packages/django/test/signals'
p1038
sg12
g13
(g14
g15
NtRp1039
(dp1040
g18
I1
sg19
I0
sg20
I96
sg21
I0
sg22
I0
sg23
I71
sg24
I0
sbssg25
S'\xdfr\x8c(\x97\xcc\xb7g\xe3l\xe9\xdd\xa1q\xab\x1f'
p1041
ssS'_usr_local_lib_python2_7_dist-packages_django_core_serializers___init__'
p1042
(dp1043
g6
(dp1044
g8
S'_usr_local_lib_python2_7_dist-packages_django_core_serializers___init__.html'
p1045
sg10
S'/usr/local/lib/python2.7/dist-packages/django/core/serializers/__init__'
p1046
sg12
g13
(g14
g15
NtRp1047
(dp1048
g18
I1
sg19
I0
sg20
I108
sg21
I0
sg22
I0
sg23
I87
sg24
I0
sbssg25
S'\xb6\x02\x88\xdaPn/\xc8\xa8\x1dHyq0|\x06'
p1049
ssS'_usr_local_lib_python2_7_dist-packages_django_db___init__'
p1050
(dp1051
g6
(dp1052
g8
S'_usr_local_lib_python2_7_dist-packages_django_db___init__.html'
p1053
sg10
S'/usr/local/lib/python2.7/dist-packages/django/db/__init__'
p1054
sg12
g13
(g14
g15
NtRp1055
(dp1056
g18
I1
sg19
I0
sg20
I26
sg21
I0
sg22
I0
sg23
I9
sg24
I0
sbssg25
S'f\xd0n\x14M\x85\x87I~\x84\xbe\xa4jj\xdf\xa6'
p1057
ssS'_usr_local_lib_python2_7_dist-packages_django_core_validators'
p1058
(dp1059
g6
(dp1060
g8
S'_usr_local_lib_python2_7_dist-packages_django_core_validators.html'
p1061
sg10
S'/usr/local/lib/python2.7/dist-packages/django/core/validators'
p1062
sg12
g13
(g14
g15
NtRp1063
(dp1064
g18
I1
sg19
I0
sg20
I194
sg21
I0
sg22
I0
sg23
I89
sg24
I0
sbssg25
S'\xaa\x1b>C!\xc4\xff\xa2vA\x17a\x8f\t\x99\xa1'
p1065
ssS'_usr_local_lib_python2_7_dist-packages_django_views_static'
p1066
(dp1067
g6
(dp1068
g8
S'_usr_local_lib_python2_7_dist-packages_django_views_static.html'
p1069
sg10
S'/usr/local/lib/python2.7/dist-packages/django/views/static'
p1070
sg12
g13
(g14
g15
NtRp1071
(dp1072
g18
I1
sg19
I0
sg20
I73
sg21
I0
sg22
I0
sg23
I57
sg24
I0
sbssg25
S'\xa3Kxi\x92\xbe\xc8s\xa6?\x0c\xd7g\x88\x15\xc5'
p1073
ssS'_usr_local_lib_python2_7_dist-packages_django_core___init__'
p1074
(dp1075
g6
(dp1076
g8
S'_usr_local_lib_python2_7_dist-packages_django_core___init__.html'
p1077
sg10
S'/usr/local/lib/python2.7/dist-packages/django/core/__init__'
p1078
sg12
g13
(g14
g15
NtRp1079
(dp1080
g18
I1
sg19
I0
sg20
I0
sg21
I0
sg22
I0
sg23
I0
sg24
I0
sbssg25
S'\xca\xf5\x9f\x7f\x88\xdfa\x831|T\x1d\xbc}\xa5v'
p1081
ssS'_usr_local_lib_python2_7_dist-packages_django_template_loader_tags'
p1082
(dp1083
g6
(dp1084
g8
S'_usr_local_lib_python2_7_dist-packages_django_template_loader_tags.html'
p1085
sg10
S'/usr/local/lib/python2.7/dist-packages/django/template/loader_tags'
p1086
sg12
g13
(g14
g15
NtRp1087
(dp1088
g18
I1
sg19
I0
sg20
I155
sg21
I0
sg22
I0
sg23
I124
sg24
I0
sbssg25
S'\x87\xe1/6\x9f\x8a\x15\x89\xef\xdfNV\xdaT\xdc\x16'
p1089
ssS'_usr_local_lib_python2_7_dist-packages_django_db_models_query_utils'
p1090
(dp1091
g6
(dp1092
g8
S'_usr_local_lib_python2_7_dist-packages_django_db_models_query_utils.html'
p1093
sg10
S'/usr/local/lib/python2.7/dist-packages/django/db/models/query_utils'
p1094
sg12
g13
(g14
g15
NtRp1095
(dp1096
g18
I1
sg19
I0
sg20
I135
sg21
I0
sg22
I0
sg23
I100
sg24
I0
sbssg25
S'%W\xc9\x8a\x0e\xa7\xb4c{\xe5\x02\x87tf5N'
p1097
ssS'_usr_local_lib_python2_7_dist-packages_django_db_models_base'
p1098
(dp1099
g6
(dp1100
g8
S'_usr_local_lib_python2_7_dist-packages_django_db_models_base.html'
p1101
sg10
S'/usr/local/lib/python2.7/dist-packages/django/db/models/base'
p1102
sg12
g13
(g14
g15
NtRp1103
(dp1104
g18
I1
sg19
I0
sg20
I819
sg21
I0
sg22
I0
sg23
I718
sg24
I0
sbssg25
S"\x1b$\xb2#\x9f\x870\xdb\x9fi'*]A\xed\xec"
p1105
ssS'_usr_local_lib_python2_7_dist-packages_django_http_multipartparser'
p1106
(dp1107
g6
(dp1108
g8
S'_usr_local_lib_python2_7_dist-packages_django_http_multipartparser.html'
p1109
sg10
S'/usr/local/lib/python2.7/dist-packages/django/http/multipartparser'
p1110
sg12
g13
(g14
g15
NtRp1111
(dp1112
g18
I1
sg19
I0
sg20
I364
sg21
I0
sg22
I0
sg23
I307
sg24
I0
sbssg25
S'\xef\xfbN\x0cl\xfc\x9acE\xb8\xb3\xa5\xeb\xd1-\x7f'
p1113
ssS'_usr_local_lib_python2_7_dist-packages_django_core_files_uploadedfile'
p1114
(dp1115
g6
(dp1116
g8
S'_usr_local_lib_python2_7_dist-packages_django_core_files_uploadedfile.html'
p1117
sg10
S'/usr/local/lib/python2.7/dist-packages/django/core/files/uploadedfile'
p1118
sg12
g13
(g14
g15
NtRp1119
(dp1120
g18
I1
sg19
I0
sg20
I60
sg21
I0
sg22
I0
sg23
I33
sg24
I0
sbssg25
S'\x0b\xc8\xf0R5z\xd3\x16\xe1\x9a\xf0\x98\x99\xbfC\xcd'
p1121
ssS'_usr_local_lib_python2_7_dist-packages_django_utils_dates'
p1122
(dp1123
g6
(dp1124
g8
S'_usr_local_lib_python2_7_dist-packages_django_utils_dates.html'
p1125
sg10
S'/usr/local/lib/python2.7/dist-packages/django/utils/dates'
p1126
sg12
g13
(g14
g15
NtRp1127
(dp1128
g18
I1
sg19
I0
sg20
I9
sg21
I0
sg22
I0
sg23
I0
sg24
I0
sbssg25
S'\x10-g\xac\xfd\xc5\xaa\x01u\x14\xc0\xd0\x91\x82\x90Y'
p1129
ssS'_usr_local_lib_python2_7_dist-packages_django_db_models_lookups'
p1130
(dp1131
g6
(dp1132
g8
S'_usr_local_lib_python2_7_dist-packages_django_db_models_lookups.html'
p1133
sg10
S'/usr/local/lib/python2.7/dist-packages/django/db/models/lookups'
p1134
sg12
g13
(g14
g15
NtRp1135
(dp1136
g18
I1
sg19
I0
sg20
I333
sg21
I0
sg22
I0
sg23
I192
sg24
I0
sbssg25
S'7\xc1\xd5\x87voJ\x18f\x18\x000\x13\xac\x90\xf9'
p1137
ssS'_usr_local_lib_python2_7_dist-packages_django_http_request'
p1138
(dp1139
g6
(dp1140
g8
S'_usr_local_lib_python2_7_dist-packages_django_http_request.html'
p1141
sg10
S'/usr/local/lib/python2.7/dist-packages/django/http/request'
p1142
sg12
g13
(g14
g15
NtRp1143
(dp1144
g18
I1
sg19
I0
sg20
I312
sg21
I0
sg22
I0
sg23
I237
sg24
I0
sbssg25
S'!TY\xa5\xa4h\x8d\xb3\xef\xc7\xd3T\x0e\x95\xdd\xc1'
p1145
ssS'_usr_local_lib_python2_7_dist-packages_django_apps___init__'
p1146
(dp1147
g6
(dp1148
g8
S'_usr_local_lib_python2_7_dist-packages_django_apps___init__.html'
p1149
sg10
S'/usr/local/lib/python2.7/dist-packages/django/apps/__init__'
p1150
sg12
g13
(g14
g15
NtRp1151
(dp1152
g18
I1
sg19
I0
sg20
I2
sg21
I0
sg22
I0
sg23
I0
sg24
I0
sbssg25
S'\xaf\xd5\x87SN\x8c\x98\xdfl\xc6\x14\xe6\x0eO\xf7\x0c'
p1153
ssS'_usr_local_lib_python2_7_dist-packages_django_core_management_commands_flush'
p1154
(dp1155
g6
(dp1156
g8
S'_usr_local_lib_python2_7_dist-packages_django_core_management_commands_flush.html'
p1157
sg10
S'/usr/local/lib/python2.7/dist-packages/django/core/management/commands/flush'
p1158
sg12
g13
(g14
g15
NtRp1159
(dp1160
g18
I1
sg19
I0
sg20
I59
sg21
I0
sg22
I0
sg23
I43
sg24
I0
sbssg25
S'\x1d\x9f>\xf7\x80of\xa3C\xa9\xc3\xeb1\x9f\x8bu'
p1161
ssS'_usr_local_lib_python2_7_dist-packages_django_db_models_options'
p1162
(dp1163
g6
(dp1164
g8
S'_usr_local_lib_python2_7_dist-packages_django_db_models_options.html'
p1165
sg10
S'/usr/local/lib/python2.7/dist-packages/django/db/models/options'
p1166
sg12
g13
(g14
g15
NtRp1167
(dp1168
g18
I1
sg19
I0
sg20
I387
sg21
I0
sg22
I0
sg23
I308
sg24
I0
sbssg25
S'\x08q\xbc\x16Z\x85\xaa\xb7B|5\xe7^;\x13\xcb'
p1169
ssS'_usr_local_lib_python2_7_dist-packages_django_utils_deconstruct'
p1170
(dp1171
g6
(dp1172
g8
S'_usr_local_lib_python2_7_dist-packages_django_utils_deconstruct.html'
p1173
sg10
S'/usr/local/lib/python2.7/dist-packages/django/utils/deconstruct'
p1174
sg12
g13
(g14
g15
NtRp1175
(dp1176
g18
I1
sg19
I0
sg20
I25
sg21
I0
sg22
I0
sg23
I9
sg24
I0
sbssg25
S'X\x8f>eROB\tm2\xcd\xf6~\xe5\xf3\x88'
p1177
ssS'_usr_local_lib_python2_7_dist-packages_django_template___init__'
p1178
(dp1179
g6
(dp1180
g8
S'_usr_local_lib_python2_7_dist-packages_django_template___init__.html'
p1181
sg10
S'/usr/local/lib/python2.7/dist-packages/django/template/__init__'
p1182
sg12
g13
(g14
g15
NtRp1183
(dp1184
g18
I1
sg19
I0
sg20
I10
sg21
I0
sg22
I0
sg23
I0
sg24
I0
sbssg25
S'\xbc\xe8\xa6\xd4\x97Oe\x94^\xd1\x93-\xaf\x05\xcf\xb3'
p1185
ssS'_usr_local_lib_python2_7_dist-packages_django_db_backends___init__'
p1186
(dp1187
g6
(dp1188
g8
S'_usr_local_lib_python2_7_dist-packages_django_db_backends___init__.html'
p1189
sg10
S'/usr/local/lib/python2.7/dist-packages/django/db/backends/__init__'
p1190
sg12
g13
(g14
g15
NtRp1191
(dp1192
g18
I1
sg19
I0
sg20
I0
sg21
I0
sg22
I0
sg23
I0
sg24
I0
sbssg25
S'\xca\xf5\x9f\x7f\x88\xdfa\x831|T\x1d\xbc}\xa5v'
p1193
ssS'_usr_local_lib_python2_7_dist-packages_django_utils_datetime_safe'
p1194
(dp1195
g6
(dp1196
g8
S'_usr_local_lib_python2_7_dist-packages_django_utils_datetime_safe.html'
p1197
sg10
S'/usr/local/lib/python2.7/dist-packages/django/utils/datetime_safe'
p1198
sg12
g13
(g14
g15
NtRp1199
(dp1200
g18
I1
sg19
I0
sg20
I58
sg21
I0
sg22
I0
sg23
I42
sg24
I0
sbssg25
S'\x0b\xf5g\x9b\xd9\x98\xb7\xeaz:i\x03\x02\x05\xa2\xa6'
p1201
ssS'_usr_local_lib_python2_7_dist-packages_django_core_urlresolvers'
p1202
(dp1203
g6
(dp1204
g8
S'_usr_local_lib_python2_7_dist-packages_django_core_urlresolvers.html'
p1205
sg10
S'/usr/local/lib/python2.7/dist-packages/django/core/urlresolvers'
p1206
sg12
g13
(g14
g15
NtRp1207
(dp1208
g18
I1
sg19
I0
sg20
I379
sg21
I0
sg22
I0
sg23
I311
sg24
I0
sbssg25
S'b\x06/\xe4\x8ef\xd4x\xf6\x00\x8bz\xff~L\x06'
p1209
ssS'_usr_local_lib_python2_7_dist-packages_django_forms_utils'
p1210
(dp1211
g6
(dp1212
g8
S'_usr_local_lib_python2_7_dist-packages_django_forms_utils.html'
p1213
sg10
S'/usr/local/lib/python2.7/dist-packages/django/forms/utils'
p1214
sg12
g13
(g14
g15
NtRp1215
(dp1216
g18
I1
sg19
I0
sg20
I98
sg21
I0
sg22
I0
sg23
I58
sg24
I0
sbssg25
S'\xfc\xe9\xcb\xdc\xec\xb2\xbbru\xa8\x80C\x15\xbc\xa5\xb3'
p1217
ssS'_usr_local_lib_python2_7_dist-packages_django_db_models_fields___init__'
p1218
(dp1219
g6
(dp1220
g8
S'_usr_local_lib_python2_7_dist-packages_django_db_models_fields___init__.html'
p1221
sg10
S'/usr/local/lib/python2.7/dist-packages/django/db/models/fields/__init__'
p1222
sg12
g13
(g14
g15
NtRp1223
(dp1224
g18
I1
sg19
I0
sg20
I1320
sg21
I0
sg22
I0
sg23
I968
sg24
I0
sbssg25
S'C\x82\xb9\xc5\x82\x02\x01\xb4o:{B\x93\xfd\x84\xb2'
p1225
ssS'_usr_local_lib_python2_7_dist-packages_django_db_models_expressions'
p1226
(dp1227
g6
(dp1228
g8
S'_usr_local_lib_python2_7_dist-packages_django_db_models_expressions.html'
p1229
sg10
S'/usr/local/lib/python2.7/dist-packages/django/db/models/expressions'
p1230
sg12
g13
(g14
g15
NtRp1231
(dp1232
g18
I1
sg19
I0
sg20
I573
sg21
I0
sg22
I0
sg23
I387
sg24
I0
sbssg25
S'\xef\x82#\xcd\xe3\xf7Y\xb4\xf8=\x0b\xf1\xcev\xa7r'
p1233
ssS'_usr_local_lib_python2_7_dist-packages_django_utils_translation___init__'
p1234
(dp1235
g6
(dp1236
g8
S'_usr_local_lib_python2_7_dist-packages_django_utils_translation___init__.html'
p1237
sg10
S'/usr/local/lib/python2.7/dist-packages/django/utils/translation/__init__'
p1238
sg12
g13
(g14
g15
NtRp1239
(dp1240
g18
I1
sg19
I0
sg20
I119
sg21
I0
sg22
I0
sg23
I65
sg24
I0
sbssg25
S'\x8b\x7fn\x04PpG\xd9by<\xd2G\x13p\xc9'
p1241
ssS'_usr_local_lib_python2_7_dist-packages_django_utils_regex_helper'
p1242
(dp1243
g6
(dp1244
g8
S'_usr_local_lib_python2_7_dist-packages_django_utils_regex_helper.html'
p1245
sg10
S'/usr/local/lib/python2.7/dist-packages/django/utils/regex_helper'
p1246
sg12
g13
(g14
g15
NtRp1247
(dp1248
g18
I1
sg19
I0
sg20
I188
sg21
I0
sg22
I0
sg23
I175
sg24
I0
sbssg25
S"?(\xd2\x8e\x8bA'\xab\x8d\x8cY\x9dCG\t\xf5"
p1249
ssS'_usr_local_lib_python2_7_dist-packages_django_forms_forms'
p1250
(dp1251
g6
(dp1252
g8
S'_usr_local_lib_python2_7_dist-packages_django_forms_forms.html'
p1253
sg10
S'/usr/local/lib/python2.7/dist-packages/django/forms/forms'
p1254
sg12
g13
(g14
g15
NtRp1255
(dp1256
g18
I1
sg19
I0
sg20
I354
sg21
I0
sg22
I0
sg23
I266
sg24
I0
sbssg25
S'\x9azU`\x8a\x97\x87\xd3\x82\x12u\xc5\x87\xb8uj'
p1257
ssS'_usr_local_lib_python2_7_dist-packages_django___init__'
p1258
(dp1259
g6
(dp1260
g8
S'_usr_local_lib_python2_7_dist-packages_django___init__.html'
p1261
sg10
S'/usr/local/lib/python2.7/dist-packages/django/__init__'
p1262
sg12
g13
(g14
g15
NtRp1263
(dp1264
g18
I1
sg19
I0
sg20
I9
sg21
I0
sg22
I0
sg23
I5
sg24
I0
sbssg25
S"Mq\x87V\t{\xf8~Y.[\x90'\x9d\xf9\xd1"
p1265
sssS'version'
p1266
S'3.7.1'
p1267
sS'settings'
p1268
S'\x98\xa8x\xfe"r\xb5K\x98\xb1N\\\x99\x9e\xf3\xe5'
p1269
sS'format'
p1270
I1
s.